target datalayout = "e-m:e-p270:32:32-p271:32:32-p272:64:64-i64:64-i128:128-f80:128-n8:16:32:64-S128"
target triple = "x86_64-pc-linux-gnu"

%class.anon.10 = type { i8 }

@.str.11 = private unnamed_addr constant [4 x i8] c"rcf\00", align 1
@.str.73 = private unnamed_addr constant [5 x i8] c"true\00", align 1
@.str.144 = private unnamed_addr constant [9 x i8] c"use_prem\00", align 1
@.str.145 = private unnamed_addr constant [89 x i8] c"use pseudo-remainder instead of remainder when computing GCDs and Sturm-Tarski sequences\00", align 1
@.str.146 = private unnamed_addr constant [19 x i8] c"clean_denominators\00", align 1
@.str.147 = private unnamed_addr constant [41 x i8] c"clean denominators before root isolation\00", align 1
@.str.148 = private unnamed_addr constant [18 x i8] c"initial_precision\00", align 1
@.str.149 = private unnamed_addr constant [111 x i8] c"a value k that is the initial interval size (as 1/2^k) when creating transcendentals and approximated division\00", align 1
@.str.150 = private unnamed_addr constant [3 x i8] c"24\00", align 1
@.str.151 = private unnamed_addr constant [14 x i8] c"inf_precision\00", align 1
@.str.152 = private unnamed_addr constant [113 x i8] c"a value k that is the initial interval size (i.e., (0, 1/2^l)) used as an approximation for infinitesimal values\00", align 1
@.str.153 = private unnamed_addr constant [14 x i8] c"max_precision\00", align 1
@.str.154 = private unnamed_addr constant [153 x i8] c"during sign determination we switch from interval arithmetic to complete methods when the interval size is less than 1/2^k, where k is the max_precision\00", align 1
@.str.155 = private unnamed_addr constant [4 x i8] c"128\00", align 1
@.str.156 = private unnamed_addr constant [29 x i8] c"lazy_algebraic_normalization\00", align 1
@.str.157 = private unnamed_addr constant [144 x i8] c"during sturm-seq and square-free polynomial computations, only normalize algebraic polynomial expressions when the defining polynomial is monic\00", align 1

; Function Attrs: mustprogress uwtable
define linkonce_odr hidden void @_ZN10rcf_params20collect_param_descrsER12param_descrs(ptr noundef nonnull align 8 dereferenceable(8) %0) #4 comdat align 2 {
  %2 = alloca ptr, align 8
  store ptr %0, ptr %2, align 8, !tbaa !7
  %3 = load ptr, ptr %2, align 8, !tbaa !7
  call void @_ZN12param_descrs6insertEPKc12cmd_arg_kindS1_S1_S1_(ptr noundef nonnull align 8 dereferenceable(8) %3, ptr noundef @.str.144, i32 noundef 1, ptr noundef @.str.145, ptr noundef @.str.73, ptr noundef @.str.11)
  %4 = load ptr, ptr %2, align 8, !tbaa !7
  call void @_ZN12param_descrs6insertEPKc12cmd_arg_kindS1_S1_S1_(ptr noundef nonnull align 8 dereferenceable(8) %4, ptr noundef @.str.146, i32 noundef 1, ptr noundef @.str.147, ptr noundef @.str.73, ptr noundef @.str.11)
  %5 = load ptr, ptr %2, align 8, !tbaa !7
  call void @_ZN12param_descrs6insertEPKc12cmd_arg_kindS1_S1_S1_(ptr noundef nonnull align 8 dereferenceable(8) %5, ptr noundef @.str.148, i32 noundef 0, ptr noundef @.str.149, ptr noundef @.str.150, ptr noundef @.str.11)
  %6 = load ptr, ptr %2, align 8, !tbaa !7
  call void @_ZN12param_descrs6insertEPKc12cmd_arg_kindS1_S1_S1_(ptr noundef nonnull align 8 dereferenceable(8) %6, ptr noundef @.str.151, i32 noundef 0, ptr noundef @.str.152, ptr noundef @.str.150, ptr noundef @.str.11)
  %7 = load ptr, ptr %2, align 8, !tbaa !7
  call void @_ZN12param_descrs6insertEPKc12cmd_arg_kindS1_S1_S1_(ptr noundef nonnull align 8 dereferenceable(8) %7, ptr noundef @.str.153, i32 noundef 0, ptr noundef @.str.154, ptr noundef @.str.155, ptr noundef @.str.11)
  %8 = load ptr, ptr %2, align 8, !tbaa !7
  call void @_ZN12param_descrs6insertEPKc12cmd_arg_kindS1_S1_S1_(ptr noundef nonnull align 8 dereferenceable(8) %8, ptr noundef @.str.156, i32 noundef 1, ptr noundef @.str.157, ptr noundef @.str.73, ptr noundef @.str.11)
  ret void
}

; Function Attrs: inlinehint mustprogress uwtable
define internal noundef ptr @"_ZZ24gparams_register_modulesvENK3$_6clEv"(ptr noundef nonnull align 1 dereferenceable(1) %0) #8 align 2 {
  %2 = alloca ptr, align 8
  %3 = alloca ptr, align 8
  store ptr %0, ptr %2, align 8, !tbaa !3
  call void @llvm.lifetime.start.p0(i64 8, ptr %3) #3
  %4 = call noalias noundef ptr @_ZN6memory8allocateEm(i64 noundef 8)
  call void @_ZN12param_descrsC1Ev(ptr noundef nonnull align 8 dereferenceable(8) %4)
  store ptr %4, ptr %3, align 8, !tbaa !7
  %5 = load ptr, ptr %3, align 8, !tbaa !7
  call void @_ZN10rcf_params20collect_param_descrsER12param_descrs(ptr noundef nonnull align 8 dereferenceable(8) %5)
  %6 = load ptr, ptr %3, align 8, !tbaa !7
  call void @llvm.lifetime.end.p0(i64 8, ptr %3) #3
  ret ptr %6
}

; Function Attrs: inlinehint mustprogress uwtable
define internal noundef ptr @"_ZZ24gparams_register_modulesvEN3$_68__invokeEv"() #8 align 2 {
  %1 = alloca %class.anon.10, align 1
  %2 = call noundef ptr @"_ZZ24gparams_register_modulesvENK3$_6clEv"(ptr noundef nonnull align 1 dereferenceable(1) %1)
  ret ptr %2
}