; Function Attrs: inlinehint mustprogress uwtable
define internal noundef ptr @"_ZZ24gparams_register_modulesvEN3$_68__invokeEv"() #5 align 2 {
  %1 = tail call noalias noundef ptr @_ZN6memory8allocateEm(i64 noundef 8)
  tail call void @_ZN12param_descrsC1Ev(ptr noundef nonnull align 8 dereferenceable(8) %1)
  tail call void @_ZN12param_descrs6insertEPKc12cmd_arg_kindS1_S1_S1_(ptr noundef nonnull align 8 dereferenceable(8) %1, ptr noundef nonnull @.str.144, i32 noundef 1, ptr noundef nonnull @.str.145, ptr noundef nonnull @.str.73, ptr noundef nonnull @.str.11)
  tail call void @_ZN12param_descrs6insertEPKc12cmd_arg_kindS1_S1_S1_(ptr noundef nonnull align 8 dereferenceable(8) %1, ptr noundef nonnull @.str.146, i32 noundef 1, ptr noundef nonnull @.str.147, ptr noundef nonnull @.str.73, ptr noundef nonnull @.str.11)
  tail call void @_ZN12param_descrs6insertEPKc12cmd_arg_kindS1_S1_S1_(ptr noundef nonnull align 8 dereferenceable(8) %1, ptr noundef nonnull @.str.148, i32 noundef 0, ptr noundef nonnull @.str.149, ptr noundef nonnull @.str.150, ptr noundef nonnull @.str.11)
  tail call void @_ZN12param_descrs6insertEPKc12cmd_arg_kindS1_S1_S1_(ptr noundef nonnull align 8 dereferenceable(8) %1, ptr noundef nonnull @.str.151, i32 noundef 0, ptr noundef nonnull @.str.152, ptr noundef nonnull @.str.150, ptr noundef nonnull @.str.11)
  tail call void @_ZN12param_descrs6insertEPKc12cmd_arg_kindS1_S1_S1_(ptr noundef nonnull align 8 dereferenceable(8) %1, ptr noundef nonnull @.str.153, i32 noundef 0, ptr noundef nonnull @.str.154, ptr noundef nonnull @.str.155, ptr noundef nonnull @.str.11)
  tail call void @_ZN12param_descrs6insertEPKc12cmd_arg_kindS1_S1_S1_(ptr noundef nonnull align 8 dereferenceable(8) %1, ptr noundef nonnull @.str.156, i32 noundef 1, ptr noundef nonnull @.str.157, ptr noundef nonnull @.str.73, ptr noundef nonnull @.str.11)
  ret ptr %1
}